target datalayout = "e-m:e-p270:32:32-p271:32:32-p272:64:64-i64:64-i128:128-f80:128-n8:16:32:64-S128"
target triple = "x86_64-pc-linux-gnu"

; Function Attrs: nounwind uwtable
define internal void @intra_pred_down_right(ptr noundef %0, ptr noundef %1, ptr noundef %2, i64 noundef %3) #0 {
  %5 = alloca ptr, align 8
  %6 = alloca ptr, align 8
  %7 = alloca ptr, align 8
  %8 = alloca i64, align 8
  %9 = alloca i32, align 4
  %10 = alloca i32, align 4
  store ptr %0, ptr %5, align 8, !tbaa !57
  store ptr %1, ptr %6, align 8, !tbaa !57
  store ptr %2, ptr %7, align 8, !tbaa !57
  store i64 %3, ptr %8, align 8, !tbaa !107
  call void @llvm.lifetime.start.p0(i64 4, ptr %9) #10
  call void @llvm.lifetime.start.p0(i64 4, ptr %10) #10
  store i32 0, ptr %10, align 4, !tbaa !9
  br label %11

11:                                               ; preds = %144, %4
  %12 = load i32, ptr %10, align 4, !tbaa !9
  %13 = icmp slt i32 %12, 8
  br i1 %13, label %14, label %147

14:                                               ; preds = %11
  store i32 0, ptr %9, align 4, !tbaa !9
  br label %15

15:                                               ; preds = %140, %14
  %16 = load i32, ptr %9, align 4, !tbaa !9
  %17 = icmp slt i32 %16, 8
  br i1 %17, label %18, label %143

18:                                               ; preds = %15
  %19 = load i32, ptr %9, align 4, !tbaa !9
  %20 = load i32, ptr %10, align 4, !tbaa !9
  %21 = icmp eq i32 %19, %20
  br i1 %21, label %22, label %50

22:                                               ; preds = %18
  %23 = load ptr, ptr %7, align 8, !tbaa !57
  %24 = getelementptr inbounds i8, ptr %23, i64 1
  %25 = load i8, ptr %24, align 1, !tbaa !27
  %26 = zext i8 %25 to i32
  %27 = load ptr, ptr %6, align 8, !tbaa !57
  %28 = getelementptr inbounds i8, ptr %27, i64 0
  %29 = load i8, ptr %28, align 1, !tbaa !27
  %30 = zext i8 %29 to i32
  %31 = mul nsw i32 2, %30
  %32 = add nsw i32 %26, %31
  %33 = load ptr, ptr %6, align 8, !tbaa !57
  %34 = getelementptr inbounds i8, ptr %33, i64 1
  %35 = load i8, ptr %34, align 1, !tbaa !27
  %36 = zext i8 %35 to i32
  %37 = add nsw i32 %32, %36
  %38 = add nsw i32 %37, 2
  %39 = ashr i32 %38, 2
  %40 = trunc i32 %39 to i8
  %41 = load ptr, ptr %5, align 8, !tbaa !57
  %42 = load i32, ptr %10, align 4, !tbaa !9
  %43 = sext i32 %42 to i64
  %44 = load i64, ptr %8, align 8, !tbaa !107
  %45 = mul nsw i64 %43, %44
  %46 = load i32, ptr %9, align 4, !tbaa !9
  %47 = sext i32 %46 to i64
  %48 = add nsw i64 %45, %47
  %49 = getelementptr inbounds i8, ptr %41, i64 %48
  store i8 %40, ptr %49, align 1, !tbaa !27
  br label %139

50:                                               ; preds = %18
  %51 = load i32, ptr %9, align 4, !tbaa !9
  %52 = load i32, ptr %10, align 4, !tbaa !9
  %53 = icmp sgt i32 %51, %52
  br i1 %53, label %54, label %96

54:                                               ; preds = %50
  %55 = load ptr, ptr %6, align 8, !tbaa !57
  %56 = load i32, ptr %9, align 4, !tbaa !9
  %57 = load i32, ptr %10, align 4, !tbaa !9
  %58 = sub nsw i32 %56, %57
  %59 = sub nsw i32 %58, 1
  %60 = sext i32 %59 to i64
  %61 = getelementptr inbounds i8, ptr %55, i64 %60
  %62 = load i8, ptr %61, align 1, !tbaa !27
  %63 = zext i8 %62 to i32
  %64 = load ptr, ptr %6, align 8, !tbaa !57
  %65 = load i32, ptr %9, align 4, !tbaa !9
  %66 = load i32, ptr %10, align 4, !tbaa !9
  %67 = sub nsw i32 %65, %66
  %68 = sext i32 %67 to i64
  %69 = getelementptr inbounds i8, ptr %64, i64 %68
  %70 = load i8, ptr %69, align 1, !tbaa !27
  %71 = zext i8 %70 to i32
  %72 = mul nsw i32 2, %71
  %73 = add nsw i32 %63, %72
  %74 = load ptr, ptr %6, align 8, !tbaa !57
  %75 = load i32, ptr %9, align 4, !tbaa !9
  %76 = load i32, ptr %10, align 4, !tbaa !9
  %77 = sub nsw i32 %75, %76
  %78 = add nsw i32 %77, 1
  %79 = sext i32 %78 to i64
  %80 = getelementptr inbounds i8, ptr %74, i64 %79
  %81 = load i8, ptr %80, align 1, !tbaa !27
  %82 = zext i8 %81 to i32
  %83 = add nsw i32 %73, %82
  %84 = add nsw i32 %83, 2
  %85 = ashr i32 %84, 2
  %86 = trunc i32 %85 to i8
  %87 = load ptr, ptr %5, align 8, !tbaa !57
  %88 = load i32, ptr %10, align 4, !tbaa !9
  %89 = sext i32 %88 to i64
  %90 = load i64, ptr %8, align 8, !tbaa !107
  %91 = mul nsw i64 %89, %90
  %92 = load i32, ptr %9, align 4, !tbaa !9
  %93 = sext i32 %92 to i64
  %94 = add nsw i64 %91, %93
  %95 = getelementptr inbounds i8, ptr %87, i64 %94
  store i8 %86, ptr %95, align 1, !tbaa !27
  br label %138

96:                                               ; preds = %50
  %97 = load ptr, ptr %7, align 8, !tbaa !57
  %98 = load i32, ptr %10, align 4, !tbaa !9
  %99 = load i32, ptr %9, align 4, !tbaa !9
  %100 = sub nsw i32 %98, %99
  %101 = sub nsw i32 %100, 1
  %102 = sext i32 %101 to i64
  %103 = getelementptr inbounds i8, ptr %97, i64 %102
  %104 = load i8, ptr %103, align 1, !tbaa !27
  %105 = zext i8 %104 to i32
  %106 = load ptr, ptr %7, align 8, !tbaa !57
  %107 = load i32, ptr %10, align 4, !tbaa !9
  %108 = load i32, ptr %9, align 4, !tbaa !9
  %109 = sub nsw i32 %107, %108
  %110 = sext i32 %109 to i64
  %111 = getelementptr inbounds i8, ptr %106, i64 %110
  %112 = load i8, ptr %111, align 1, !tbaa !27
  %113 = zext i8 %112 to i32
  %114 = mul nsw i32 2, %113
  %115 = add nsw i32 %105, %114
  %116 = load ptr, ptr %7, align 8, !tbaa !57
  %117 = load i32, ptr %10, align 4, !tbaa !9
  %118 = load i32, ptr %9, align 4, !tbaa !9
  %119 = sub nsw i32 %117, %118
  %120 = add nsw i32 %119, 1
  %121 = sext i32 %120 to i64
  %122 = getelementptr inbounds i8, ptr %116, i64 %121
  %123 = load i8, ptr %122, align 1, !tbaa !27
  %124 = zext i8 %123 to i32
  %125 = add nsw i32 %115, %124
  %126 = add nsw i32 %125, 2
  %127 = ashr i32 %126, 2
  %128 = trunc i32 %127 to i8
  %129 = load ptr, ptr %5, align 8, !tbaa !57
  %130 = load i32, ptr %10, align 4, !tbaa !9
  %131 = sext i32 %130 to i64
  %132 = load i64, ptr %8, align 8, !tbaa !107
  %133 = mul nsw i64 %131, %132
  %134 = load i32, ptr %9, align 4, !tbaa !9
  %135 = sext i32 %134 to i64
  %136 = add nsw i64 %133, %135
  %137 = getelementptr inbounds i8, ptr %129, i64 %136
  store i8 %128, ptr %137, align 1, !tbaa !27
  br label %138

138:                                              ; preds = %96, %54
  br label %139

139:                                              ; preds = %138, %22
  br label %140

140:                                              ; preds = %139
  %141 = load i32, ptr %9, align 4, !tbaa !9
  %142 = add nsw i32 %141, 1
  store i32 %142, ptr %9, align 4, !tbaa !9
  br label %15, !llvm.loop !114

143:                                              ; preds = %15
  br label %144

144:                                              ; preds = %143
  %145 = load i32, ptr %10, align 4, !tbaa !9
  %146 = add nsw i32 %145, 1
  store i32 %146, ptr %10, align 4, !tbaa !9
  br label %11, !llvm.loop !115

147:                                              ; preds = %11
  call void @llvm.lifetime.end.p0(i64 4, ptr %10) #10
  call void @llvm.lifetime.end.p0(i64 4, ptr %9) #10
  ret void
}