; Function Attrs: nofree norecurse nosync nounwind memory(argmem: readwrite) uwtable
define internal void @intra_pred_down_right(ptr noundef writeonly captures(none) %0, ptr noundef readonly captures(none) %1, ptr noundef readonly captures(none) %2, i64 noundef %3) #9 {
  %5 = getelementptr inbounds nuw i8, ptr %2, i64 1
  %6 = getelementptr inbounds nuw i8, ptr %1, i64 1
  br label %.preheader

.preheader:                                       ; preds = %4, %63
  %indvars.iv44 = phi i64 [ 0, %4 ], [ %indvars.iv.next45, %63 ]
  %7 = mul nsw i64 %3, %indvars.iv44
  %8 = getelementptr i8, ptr %0, i64 %7
  %9 = getelementptr i8, ptr %8, i64 %indvars.iv44
  br label %10

10:                                               ; preds = %.preheader, %62
  %indvars.iv = phi i64 [ 0, %.preheader ], [ %indvars.iv.next, %62 ]
  %11 = icmp eq i64 %indvars.iv, %indvars.iv44
  br i1 %11, label %12, label %25

12:                                               ; preds = %10
  %13 = load i8, ptr %5, align 1, !tbaa !24
  %14 = zext i8 %13 to i16
  %15 = load i8, ptr %1, align 1, !tbaa !24
  %16 = zext i8 %15 to i16
  %17 = shl nuw nsw i16 %16, 1
  %18 = load i8, ptr %6, align 1, !tbaa !24
  %19 = zext i8 %18 to i16
  %20 = add nuw nsw i16 %14, 2
  %21 = add nuw nsw i16 %20, %17
  %22 = add nuw nsw i16 %21, %19
  %23 = lshr i16 %22, 2
  %24 = trunc nuw i16 %23 to i8
  store i8 %24, ptr %9, align 1, !tbaa !24
  br label %62

25:                                               ; preds = %10
  %26 = icmp samesign ugt i64 %indvars.iv, %indvars.iv44
  %27 = getelementptr i8, ptr %8, i64 %indvars.iv
  br i1 %26, label %28, label %45

28:                                               ; preds = %25
  %29 = sub nuw nsw i64 %indvars.iv, %indvars.iv44
  %30 = getelementptr i8, ptr %1, i64 %29
  %31 = getelementptr i8, ptr %30, i64 -1
  %32 = load i8, ptr %31, align 1, !tbaa !24
  %33 = zext i8 %32 to i16
  %34 = load i8, ptr %30, align 1, !tbaa !24
  %35 = zext i8 %34 to i16
  %36 = shl nuw nsw i16 %35, 1
  %37 = getelementptr inbounds nuw i8, ptr %30, i64 1
  %38 = load i8, ptr %37, align 1, !tbaa !24
  %39 = zext i8 %38 to i16
  %40 = add nuw nsw i16 %33, 2
  %41 = add nuw nsw i16 %40, %36
  %42 = add nuw nsw i16 %41, %39
  %43 = lshr i16 %42, 2
  %44 = trunc nuw i16 %43 to i8
  store i8 %44, ptr %27, align 1, !tbaa !24
  br label %62

45:                                               ; preds = %25
  %46 = sub nuw nsw i64 %indvars.iv44, %indvars.iv
  %47 = getelementptr i8, ptr %2, i64 %46
  %48 = getelementptr i8, ptr %47, i64 -1
  %49 = load i8, ptr %48, align 1, !tbaa !24
  %50 = zext i8 %49 to i16
  %51 = load i8, ptr %47, align 1, !tbaa !24
  %52 = zext i8 %51 to i16
  %53 = shl nuw nsw i16 %52, 1
  %54 = getelementptr inbounds nuw i8, ptr %47, i64 1
  %55 = load i8, ptr %54, align 1, !tbaa !24
  %56 = zext i8 %55 to i16
  %57 = add nuw nsw i16 %50, 2
  %58 = add nuw nsw i16 %57, %53
  %59 = add nuw nsw i16 %58, %56
  %60 = lshr i16 %59, 2
  %61 = trunc nuw i16 %60 to i8
  store i8 %61, ptr %27, align 1, !tbaa !24
  br label %62

62:                                               ; preds = %12, %45, %28
  %indvars.iv.next = add nuw nsw i64 %indvars.iv, 1
  %exitcond.not = icmp eq i64 %indvars.iv.next, 8
  br i1 %exitcond.not, label %63, label %10, !llvm.loop !102

63:                                               ; preds = %62
  %indvars.iv.next45 = add nuw nsw i64 %indvars.iv44, 1
  %exitcond47.not = icmp eq i64 %indvars.iv.next45, 8
  br i1 %exitcond47.not, label %64, label %.preheader, !llvm.loop !103

64:                                               ; preds = %63
  ret void
}